target datalayout = "e-m:e-p270:32:32-p271:32:32-p272:64:64-i64:64-i128:128-f80:128-n8:16:32:64-S128"
target triple = "x86_64-pc-linux-gnu"

%struct.IntegerSet = type { ptr, i64, i64, i64, i32, ptr, [11 x ptr], ptr, [482 x i64], i32, i8, ptr, i32, i32, ptr, i32, [241 x i64] }

@CurrentMemoryContext = external global ptr, align 8

; Function Attrs: nounwind uwtable
define dso_local ptr @intset_create() #0 {
  %1 = alloca ptr, align 8
  call void @llvm.lifetime.start.p0(i64 8, ptr %1) #6
  %2 = call ptr @palloc(i64 noundef 5968)
  store ptr %2, ptr %1, align 8
  %3 = load ptr, ptr @CurrentMemoryContext, align 8
  %4 = load ptr, ptr %1, align 8
  %5 = getelementptr inbounds nuw %struct.IntegerSet, ptr %4, i32 0, i32 0
  store ptr %3, ptr %5, align 8
  %6 = load ptr, ptr %1, align 8
  %7 = call i64 @GetMemoryChunkSpace(ptr noundef %6)
  %8 = load ptr, ptr %1, align 8
  %9 = getelementptr inbounds nuw %struct.IntegerSet, ptr %8, i32 0, i32 1
  store i64 %7, ptr %9, align 8
  %10 = load ptr, ptr %1, align 8
  %11 = getelementptr inbounds nuw %struct.IntegerSet, ptr %10, i32 0, i32 2
  store i64 0, ptr %11, align 8
  %12 = load ptr, ptr %1, align 8
  %13 = getelementptr inbounds nuw %struct.IntegerSet, ptr %12, i32 0, i32 3
  store i64 0, ptr %13, align 8
  %14 = load ptr, ptr %1, align 8
  %15 = getelementptr inbounds nuw %struct.IntegerSet, ptr %14, i32 0, i32 4
  store i32 0, ptr %15, align 8
  %16 = load ptr, ptr %1, align 8
  %17 = getelementptr inbounds nuw %struct.IntegerSet, ptr %16, i32 0, i32 5
  store ptr null, ptr %17, align 8
  %18 = load ptr, ptr %1, align 8
  %19 = getelementptr inbounds nuw %struct.IntegerSet, ptr %18, i32 0, i32 6
  %20 = getelementptr inbounds [11 x ptr], ptr %19, i64 0, i64 0
  call void @llvm.memset.p0.i64(ptr align 8 %20, i8 0, i64 88, i1 false)
  %21 = load ptr, ptr %1, align 8
  %22 = getelementptr inbounds nuw %struct.IntegerSet, ptr %21, i32 0, i32 7
  store ptr null, ptr %22, align 8
  %23 = load ptr, ptr %1, align 8
  %24 = getelementptr inbounds nuw %struct.IntegerSet, ptr %23, i32 0, i32 9
  store i32 0, ptr %24, align 8
  %25 = load ptr, ptr %1, align 8
  %26 = getelementptr inbounds nuw %struct.IntegerSet, ptr %25, i32 0, i32 10
  store i8 0, ptr %26, align 4
  %27 = load ptr, ptr %1, align 8
  %28 = getelementptr inbounds nuw %struct.IntegerSet, ptr %27, i32 0, i32 14
  store ptr null, ptr %28, align 8
  %29 = load ptr, ptr %1, align 8
  %30 = getelementptr inbounds nuw %struct.IntegerSet, ptr %29, i32 0, i32 15
  store i32 0, ptr %30, align 8
  %31 = load ptr, ptr %1, align 8
  %32 = getelementptr inbounds nuw %struct.IntegerSet, ptr %31, i32 0, i32 13
  store i32 0, ptr %32, align 4
  %33 = load ptr, ptr %1, align 8
  %34 = getelementptr inbounds nuw %struct.IntegerSet, ptr %33, i32 0, i32 12
  store i32 0, ptr %34, align 8
  %35 = load ptr, ptr %1, align 8
  %36 = getelementptr inbounds nuw %struct.IntegerSet, ptr %35, i32 0, i32 11
  store ptr null, ptr %36, align 8
  %37 = load ptr, ptr %1, align 8
  call void @llvm.lifetime.end.p0(i64 8, ptr %1) #6
  ret ptr %37
}