; Function Attrs: nounwind uwtable
define dso_local noundef ptr @intset_create() local_unnamed_addr #0 {
  %1 = tail call ptr @palloc(i64 noundef 5968) #10
  %2 = load ptr, ptr @CurrentMemoryContext, align 8
  store ptr %2, ptr %1, align 8
  %3 = tail call i64 @GetMemoryChunkSpace(ptr noundef nonnull %1) #10
  %4 = getelementptr inbounds nuw i8, ptr %1, i64 8
  store i64 %3, ptr %4, align 8
  %5 = getelementptr inbounds nuw i8, ptr %1, i64 16
  %6 = getelementptr inbounds nuw i8, ptr %1, i64 40
  %7 = getelementptr inbounds nuw i8, ptr %1, i64 4000
  store i32 0, ptr %7, align 8
  %8 = getelementptr inbounds nuw i8, ptr %1, i64 4004
  store i8 0, ptr %8, align 4
  %9 = getelementptr inbounds nuw i8, ptr %1, i64 4008
  tail call void @llvm.memset.p0.i64(ptr noundef nonnull align 8 dereferenceable(20) %5, i8 0, i64 20, i1 false)
  tail call void @llvm.memset.p0.i64(ptr noundef nonnull align 8 dereferenceable(104) %6, i8 0, i64 104, i1 false)
  tail call void @llvm.memset.p0.i64(ptr noundef nonnull align 8 dereferenceable(28) %9, i8 0, i64 28, i1 false)
  ret ptr %1
}